target datalayout = "e-m:e-p270:32:32-p271:32:32-p272:64:64-i64:64-i128:128-f80:128-n8:16:32:64-S128"
target triple = "x86_64-pc-linux-gnu"

@node_record_count = external global i32, align 4

; Function Attrs: nounwind uwtable
define dso_local void @core_array_not(ptr noundef %0) #0 {
  %2 = alloca ptr, align 8
  %3 = alloca i32, align 4
  store ptr %0, ptr %2, align 8
  %4 = load ptr, ptr %2, align 8
  %5 = icmp ne ptr %4, null
  br i1 %5, label %7, label %6

6:                                                ; preds = %1
  br label %31

7:                                                ; preds = %1
  call void @llvm.lifetime.start.p0(i64 4, ptr %3) #3
  store i32 0, ptr %3, align 4
  br label %8

8:                                                ; preds = %27, %7
  %9 = load i32, ptr %3, align 4
  %10 = load i32, ptr @node_record_count, align 4
  %11 = icmp slt i32 %9, %10
  br i1 %11, label %13, label %12

12:                                               ; preds = %8
  call void @llvm.lifetime.end.p0(i64 4, ptr %3) #3
  br label %30

13:                                               ; preds = %8
  %14 = load ptr, ptr %2, align 8
  %15 = load i32, ptr %3, align 4
  %16 = sext i32 %15 to i64
  %17 = getelementptr inbounds ptr, ptr %14, i64 %16
  %18 = load ptr, ptr %17, align 8
  %19 = icmp ne ptr %18, null
  br i1 %19, label %20, label %26

20:                                               ; preds = %13
  %21 = load ptr, ptr %2, align 8
  %22 = load i32, ptr %3, align 4
  %23 = sext i32 %22 to i64
  %24 = getelementptr inbounds ptr, ptr %21, i64 %23
  %25 = load ptr, ptr %24, align 8
  call void @bit_not(ptr noundef %25)
  br label %26

26:                                               ; preds = %20, %13
  br label %27

27:                                               ; preds = %26
  %28 = load i32, ptr %3, align 4
  %29 = add nsw i32 %28, 1
  store i32 %29, ptr %3, align 4
  br label %8, !llvm.loop !13

30:                                               ; preds = %12
  br label %31

31:                                               ; preds = %30, %6
  ret void
}