; Function Attrs: nounwind uwtable
define dso_local void @core_array_not(ptr noundef readonly captures(address_is_null) %0) local_unnamed_addr #0 {
  %.not = icmp ne ptr %0, null
  %2 = load i32, ptr @node_record_count, align 4
  %3 = icmp sgt i32 %2, 0
  %or.cond = select i1 %.not, i1 %3, i1 false
  br i1 %or.cond, label %.lr.ph, label %.loopexit

.lr.ph:                                           ; preds = %1, %8
  %4 = phi i32 [ %9, %8 ], [ %2, %1 ]
  %indvars.iv = phi i64 [ %indvars.iv.next, %8 ], [ 0, %1 ]
  %5 = getelementptr inbounds nuw ptr, ptr %0, i64 %indvars.iv
  %6 = load ptr, ptr %5, align 8
  %.not8 = icmp eq ptr %6, null
  br i1 %.not8, label %8, label %7

7:                                                ; preds = %.lr.ph
  tail call void @bit_not(ptr noundef nonnull %6) #3
  %.pre = load i32, ptr @node_record_count, align 4
  br label %8

8:                                                ; preds = %.lr.ph, %7
  %9 = phi i32 [ %4, %.lr.ph ], [ %.pre, %7 ]
  %indvars.iv.next = add nuw nsw i64 %indvars.iv, 1
  %10 = sext i32 %9 to i64
  %11 = icmp slt i64 %indvars.iv.next, %10
  br i1 %11, label %.lr.ph, label %.loopexit, !llvm.loop !13

.loopexit:                                        ; preds = %8, %1
  ret void
}